; Function Attrs: nounwind uwtable
define nonnull ptr @l___private_Std_Time_Internal_UnitVal_0__Std_Time_Internal_decEqUnitVal____x40_Std_Time_Internal_UnitVal___hyg_208____rarg___boxed(ptr noundef %0, ptr noundef %1) #1 {
  %3 = ptrtoint ptr %0 to i64
  %4 = ptrtoint ptr %1 to i64
  %5 = and i64 %3, 1
  %6 = and i64 %5, %4
  %or.cond.not.i.i.i = icmp eq i64 %6, 0
  br i1 %or.cond.not.i.i.i, label %.critedge.i.i.i, label %7, !prof !12

7:                                                ; preds = %2
  %8 = icmp eq ptr %0, %1
  br label %l___private_Std_Time_Internal_UnitVal_0__Std_Time_Internal_decEqUnitVal____x40_Std_Time_Internal_UnitVal___hyg_208____rarg.exit

.critedge.i.i.i:                                  ; preds = %2
  %9 = tail call zeroext i1 @lean_int_big_eq(ptr noundef %0, ptr noundef %1) #5
  br label %l___private_Std_Time_Internal_UnitVal_0__Std_Time_Internal_decEqUnitVal____x40_Std_Time_Internal_UnitVal___hyg_208____rarg.exit

l___private_Std_Time_Internal_UnitVal_0__Std_Time_Internal_decEqUnitVal____x40_Std_Time_Internal_UnitVal___hyg_208____rarg.exit: ; preds = %7, %.critedge.i.i.i
  %.0.i.i.i = phi i1 [ %8, %7 ], [ %9, %.critedge.i.i.i ]
  %10 = and i64 %4, 1
  %.not = icmp eq i64 %10, 0
  br i1 %.not, label %11, label %lean_dec.exit5

11:                                               ; preds = %l___private_Std_Time_Internal_UnitVal_0__Std_Time_Internal_decEqUnitVal____x40_Std_Time_Internal_UnitVal___hyg_208____rarg.exit
  %12 = load i32, ptr %1, align 4, !tbaa !8
  %13 = icmp sgt i32 %12, 1
  br i1 %13, label %14, label %16, !prof !11

14:                                               ; preds = %11
  %15 = add nsw i32 %12, -1
  store i32 %15, ptr %1, align 4, !tbaa !8
  br label %lean_dec.exit5

16:                                               ; preds = %11
  %.not.i = icmp eq i32 %12, 0
  br i1 %.not.i, label %lean_dec.exit5, label %17

17:                                               ; preds = %16
  tail call void @lean_dec_ref_cold(ptr noundef nonnull %1) #5
  br label %lean_dec.exit5

lean_dec.exit5:                                   ; preds = %17, %16, %14, %l___private_Std_Time_Internal_UnitVal_0__Std_Time_Internal_decEqUnitVal____x40_Std_Time_Internal_UnitVal___hyg_208____rarg.exit
  %.not8 = icmp eq i64 %5, 0
  br i1 %.not8, label %18, label %lean_dec.exit

18:                                               ; preds = %lean_dec.exit5
  %19 = load i32, ptr %0, align 4, !tbaa !8
  %20 = icmp sgt i32 %19, 1
  br i1 %20, label %21, label %23, !prof !11

21:                                               ; preds = %18
  %22 = add nsw i32 %19, -1
  store i32 %22, ptr %0, align 4, !tbaa !8
  br label %lean_dec.exit

23:                                               ; preds = %18
  %.not.i6 = icmp eq i32 %19, 0
  br i1 %.not.i6, label %lean_dec.exit, label %24

24:                                               ; preds = %23
  tail call void @lean_dec_ref_cold(ptr noundef nonnull %0) #5
  br label %lean_dec.exit

lean_dec.exit:                                    ; preds = %24, %23, %21, %lean_dec.exit5
  %25 = select i1 %.0.i.i.i, ptr inttoptr (i64 3 to ptr), ptr inttoptr (i64 1 to ptr)
  ret ptr %25
}